; Function Attrs: nounwind uwtable
define dso_local ptr @get_name_decoration(ptr noundef %0) local_unnamed_addr #0 {
  %.b.i = load i1, ptr @decoration_loaded, align 4
  br i1 %.b.i, label %load_ref_decorations.exit, label %2

2:                                                ; preds = %1
  store i1 true, ptr @decoration_loaded, align 4
  store i32 1, ptr @decoration_flags, align 4, !tbaa !11
  %3 = load ptr, ptr @the_repository, align 8, !tbaa !15
  %4 = tail call ptr @get_main_ref_store(ptr noundef %3) #15
  %5 = tail call i32 @refs_for_each_ref(ptr noundef %4, ptr noundef nonnull @add_ref_decoration, ptr noundef null) #15
  %6 = load ptr, ptr @the_repository, align 8, !tbaa !15
  %7 = tail call ptr @get_main_ref_store(ptr noundef %6) #15
  %8 = tail call i32 @refs_head_ref(ptr noundef %7, ptr noundef nonnull @add_ref_decoration, ptr noundef null) #15
  %9 = tail call i32 @for_each_commit_graft(ptr noundef nonnull @add_graft_decoration, ptr noundef null) #15
  br label %load_ref_decorations.exit

load_ref_decorations.exit:                        ; preds = %1, %2
  %10 = tail call ptr @lookup_decoration(ptr noundef nonnull @name_decoration, ptr noundef %0) #15
  ret ptr %10
}